(dp0
Vfullscreen_mode
p1
I0
sVorientation
p2
Vhorizontal
p3
sVfocus
p4
(lp5
I38376944
aI38363648
asVsticky
p6
I00
sVurgent
p7
I00
sVlast_split_layout
p8
Vsplith
p9
sVfloating
p10
Vauto_off
p11
sVborder
p12
Vpixel
p13
sVid
p14
I38007600
sVcurrent_border_width
p15
I-1
sVlayout
p16
Vsplith
p17
sVpercent
p18
NsVworkspace_layout
p19
Vdefault
p20
sVwindow
p21
NsVnodes
p22
(lp23
(dp24
Vfullscreen_mode
p25
I0
sVorientation
p26
Vnone
p27
sVfocus
p28
(lp29
I38366608
asVsticky
p30
I00
sVurgent
p31
I00
sVlast_split_layout
p32
Vsplith
p33
sVfloating
p34
Vauto_off
p35
sVborder
p36
Vpixel
p37
sVid
p38
I38363648
sVcurrent_border_width
p39
I-1
sVlayout
p40
Voutput
p41
sVpercent
p42
F0.5
sVworkspace_layout
p43
Vdefault
p44
sVwindow
p45
NsVnodes
p46
(lp47
(dp48
Vfullscreen_mode
p49
I0
sVorientation
p50
Vhorizontal
p51
sVfocus
p52
(lp53
I38369696
asVsticky
p54
I00
sVurgent
p55
I00
sVlast_split_layout
p56
Vsplith
p57
sVfloating
p58
Vauto_off
p59
sVborder
p60
Vpixel
p61
sVid
p62
I38366608
sVcurrent_border_width
p63
I-1
sVlayout
p64
Vsplith
p65
sVpercent
p66
NsVworkspace_layout
p67
Vdefault
p68
sVwindow
p69
NsVnodes
p70
(lp71
(dp72
Vfullscreen_mode
p73
I1
sVorientation
p74
Vnone
p75
sVfocus
p76
(lp77
sVsticky
p78
I00
sVurgent
p79
I00
sVnum
p80
I-1
sVlast_split_layout
p81
Vsplith
p82
sVfloating
p83
Vauto_off
p84
sVborder
p85
Vpixel
p86
sVid
p87
I38369696
sVcurrent_border_width
p88
I-1
sVlayout
p89
Vsplith
p90
sVpercent
p91
NsVworkspace_layout
p92
Vdefault
p93
sVwindow
p94
NsVnodes
p95
(lp96
sVtype
p97
Vworkspace
p98
sVdeco_rect
p99
(dp100
Vy
p101
I0
sVx
p102
I0
sVheight
p103
I0
sVwidth
p104
I0
ssVswallows
p105
(lp106
sVfocused
p107
I00
sVscratchpad_state
p108
Vnone
p109
sVrect
p110
(dp111
g101
I0
sg102
I0
sVheight
p112
I0
sVwidth
p113
I0
ssVwindow_rect
p114
(dp115
g101
I0
sg102
I0
sVheight
p116
I0
sVwidth
p117
I0
ssVname
p118
V__i3_scratch
p119
sVgeometry
p120
(dp121
g101
I0
sg102
I0
sVheight
p122
I0
sVwidth
p123
I0
ssVgaps
p124
(dp125
Vouter
p126
I0
sVinner
p127
I0
ssVfloating_nodes
p128
(lp129
sasVtype
p130
Vcon
p131
sVdeco_rect
p132
(dp133
g101
I0
sg102
I0
sVheight
p134
I0
sVwidth
p135
I0
ssVswallows
p136
(lp137
sVfocused
p138
I00
sVscratchpad_state
p139
Vnone
p140
sVrect
p141
(dp142
g101
I0
sg102
I0
sVheight
p143
I0
sVwidth
p144
I0
ssVwindow_rect
p145
(dp146
g101
I0
sg102
I0
sVheight
p147
I0
sVwidth
p148
I0
ssVname
p149
Vcontent
p150
sVgeometry
p151
(dp152
g101
I0
sg102
I0
sVheight
p153
I0
sVwidth
p154
I0
ssVfloating_nodes
p155
(lp156
sasVtype
p157
Voutput
p158
sVdeco_rect
p159
(dp160
g101
I0
sg102
I0
sVheight
p161
I0
sVwidth
p162
I0
ssVswallows
p163
(lp164
sVfocused
p165
I00
sVscratchpad_state
p166
Vnone
p167
sVrect
p168
(dp169
g101
I0
sg102
I0
sVheight
p170
I1080
sVwidth
p171
I1920
ssVwindow_rect
p172
(dp173
g101
I0
sg102
I0
sVheight
p174
I0
sVwidth
p175
I0
ssVname
p176
V__i3
p177
sVgeometry
p178
(dp179
g101
I0
sg102
I0
sVheight
p180
I0
sVwidth
p181
I0
ssVfloating_nodes
p182
(lp183
sa(dp184
Vfullscreen_mode
p185
I0
sVorientation
p186
Vnone
p187
sVfocus
p188
(lp189
I38382864
aI38379904
aI38385952
asVsticky
p190
I00
sVurgent
p191
I00
sVlast_split_layout
p192
Vsplith
p193
sVfloating
p194
Vauto_off
p195
sVborder
p196
Vpixel
p197
sVid
p198
I38376944
sVcurrent_border_width
p199
I-1
sVlayout
p200
Voutput
p201
sVpercent
p202
F0.5
sVworkspace_layout
p203
Vdefault
p204
sVwindow
p205
NsVnodes
p206
(lp207
(dp208
Vfullscreen_mode
p209
I0
sVorientation
p210
Vnone
p211
sVfocus
p212
(lp213
I38408192
asVsticky
p214
I00
sVurgent
p215
I00
sVlast_split_layout
p216
Vsplith
p217
sVfloating
p218
Vauto_off
p219
sVborder
p220
Vpixel
p221
sVid
p222
I38379904
sVcurrent_border_width
p223
I-1
sVlayout
p224
Vdockarea
p225
sVpercent
p226
NsVworkspace_layout
p227
Vdefault
p228
sVwindow
p229
NsVnodes
p230
(lp231
(dp232
Vwindow_properties
p233
(dp234
Vinstance
p235
Vi3bar
p236
sVtransient_for
p237
NsVclass
p238
Vi3bar
p239
sVtitle
p240
Vi3bar for output DFP1
p241
ssVfullscreen_mode
p242
I0
sVorientation
p243
Vnone
p244
sVprocess
p245
S'i3bar'
p246
sVfocus
p247
(lp248
sVsticky
p249
I00
sVurgent
p250
I00
sVlast_split_layout
p251
Vsplith
p252
sVfloating
p253
Vauto_off
p254
sVborder
p255
Vpixel
p256
sVid
p257
I38408192
sVcurrent_border_width
p258
I4
sVlayout
p259
Vsplith
p260
sVpercent
p261
F1.0
sVworkspace_layout
p262
Vdefault
p263
sVwindow
p264
I18874374
sVnodes
p265
(lp266
sVtype
p267
Vcon
p268
sVdeco_rect
p269
(dp270
g101
I0
sg102
I0
sVheight
p271
I0
sVwidth
p272
I0
ssVswallows
p273
(lp274
sVfocused
p275
I00
sVscratchpad_state
p276
Vnone
p277
sVrect
p278
(dp279
g101
I0
sg102
I0
sVheight
p280
I30
sVwidth
p281
I1920
ssVwindow_rect
p282
(dp283
g101
I0
sg102
I0
sVheight
p284
I30
sVwidth
p285
I1920
ssVname
p286
Vi3bar for output DFP1
p287
sVgeometry
p288
(dp289
g101
I1050
sg102
I0
sVheight
p290
I30
sVwidth
p291
I1920
ssVfloating_nodes
p292
(lp293
sasVtype
p294
Vdockarea
p295
sVdeco_rect
p296
(dp297
g101
I0
sg102
I0
sVheight
p298
I0
sVwidth
p299
I0
ssVswallows
p300
(lp301
(dp302
Vdock
p303
I2
sVinsert_where
p304
I2
sasVfocused
p305
I00
sVscratchpad_state
p306
Vnone
p307
sVrect
p308
(dp309
g101
I0
sg102
I0
sVheight
p310
I30
sVwidth
p311
I1920
ssVwindow_rect
p312
(dp313
g101
I0
sg102
I0
sVheight
p314
I0
sVwidth
p315
I0
ssVname
p316
Vtopdock
p317
sVgeometry
p318
(dp319
g101
I0
sg102
I0
sVheight
p320
I0
sVwidth
p321
I0
ssVfloating_nodes
p322
(lp323
sa(dp324
Vfullscreen_mode
p325
I0
sVorientation
p326
Vhorizontal
p327
sVfocus
p328
(lp329
I38389184
aI38693360
asVsticky
p330
I00
sVurgent
p331
I00
sVlast_split_layout
p332
Vsplith
p333
sVfloating
p334
Vauto_off
p335
sVborder
p336
Vpixel
p337
sVid
p338
I38382864
sVcurrent_border_width
p339
I-1
sVlayout
p340
Vsplith
p341
sVpercent
p342
NsVworkspace_layout
p343
Vdefault
p344
sVwindow
p345
NsVnodes
p346
(lp347
(dp348
Vfullscreen_mode
p349
I1
sVorientation
p350
Vhorizontal
p351
sVfocus
p352
(lp353
I38415600
aI38432288
asVsticky
p354
I00
sVurgent
p355
I00
sVnum
p356
I-1
sVlast_split_layout
p357
Vsplith
p358
sVfloating
p359
Vauto_off
p360
sVborder
p361
Vpixel
p362
sVid
p363
I38389184
sVcurrent_border_width
p364
I-1
sVlayout
p365
Vsplith
p366
sVpercent
p367
F0.5
sVworkspace_layout
p368
Vdefault
p369
sVwindow
p370
NsVnodes
p371
(lp372
(dp373
Vfullscreen_mode
p374
I0
sVorientation
p375
Vvertical
p376
sVfocus
p377
(lp378
I38423216
aI38426304
asVsticky
p379
I00
sVurgent
p380
I00
sVlast_split_layout
p381
Vsplitv
p382
sVfloating
p383
Vauto_off
p384
sVborder
p385
Vpixel
p386
sVid
p387
I38415600
sVcurrent_border_width
p388
I-1
sVlayout
p389
Vsplitv
p390
sVpercent
p391
F0.5
sVworkspace_layout
p392
Vdefault
p393
sVwindow
p394
NsVnodes
p395
(lp396
(dp397
Vwindow_properties
p398
(dp399
Vinstance
p400
Vurxvt
p401
sVtransient_for
p402
NsVclass
p403
VURxvt
p404
sVtitle
p405
Vstation: ~
p406
ssVfullscreen_mode
p407
I0
sVorientation
p408
Vnone
p409
sg245
S'urxvt'
p410
sVfocus
p411
(lp412
sVsticky
p413
I00
sVurgent
p414
I00
sVlast_split_layout
p415
Vsplith
p416
sVfloating
p417
Vauto_off
p418
sVborder
p419
Vpixel
p420
sVid
p421
I38423216
sVcurrent_border_width
p422
I4
sVlayout
p423
Vsplith
p424
sVpercent
p425
F0.5
sVworkspace_layout
p426
Vdefault
p427
sVwindow
p428
I4194313
sVnodes
p429
(lp430
sVtype
p431
Vcon
p432
sVdeco_rect
p433
(dp434
g101
I0
sg102
I0
sVheight
p435
I0
sVwidth
p436
I0
ssVswallows
p437
(lp438
sVfocused
p439
I01
sVscratchpad_state
p440
Vnone
p441
sVrect
p442
(dp443
g101
I42
sg102
I12
sVheight
p444
I507
sVwidth
p445
I942
ssVwindow_rect
p446
(dp447
g101
I4
sg102
I4
sVheight
p448
I499
sVwidth
p449
I934
ssVname
p450
Vstation: ~
p451
sVgeometry
p452
(dp453
g101
I0
sg102
I0
sVheight
p454
I360
sVwidth
p455
I560
ssVfloating_nodes
p456
(lp457
sa(dp458
Vwindow_properties
p459
(dp460
Vinstance
p461
Vurxvt
p462
sVtransient_for
p463
NsVclass
p464
VURxvt
p465
sVtitle
p466
Vstation: ~
p467
ssVfullscreen_mode
p468
I0
sVorientation
p469
Vnone
p470
sg245
S'urxvt'
p471
sVfocus
p472
(lp473
sVsticky
p474
I00
sVurgent
p475
I00
sVlast_split_layout
p476
Vsplith
p477
sVfloating
p478
Vauto_off
p479
sVborder
p480
Vpixel
p481
sVid
p482
I38426304
sVcurrent_border_width
p483
I4
sVlayout
p484
Vsplith
p485
sVpercent
p486
F0.5
sVworkspace_layout
p487
Vdefault
p488
sVwindow
p489
I4194324
sVnodes
p490
(lp491
sVtype
p492
Vcon
p493
sVdeco_rect
p494
(dp495
g101
I0
sg102
I0
sVheight
p496
I0
sVwidth
p497
I0
ssVswallows
p498
(lp499
sVfocused
p500
I00
sVscratchpad_state
p501
Vnone
p502
sVrect
p503
(dp504
g101
I561
sg102
I12
sVheight
p505
I507
sVwidth
p506
I942
ssVwindow_rect
p507
(dp508
g101
I4
sg102
I4
sVheight
p509
I499
sVwidth
p510
I934
ssVname
p511
Vstation: ~
p512
sVgeometry
p513
(dp514
g101
I0
sg102
I0
sVheight
p515
I360
sVwidth
p516
I560
ssVfloating_nodes
p517
(lp518
sasVtype
p519
Vcon
p520
sVdeco_rect
p521
(dp522
g101
I0
sg102
I0
sVheight
p523
I0
sVwidth
p524
I0
ssVswallows
p525
(lp526
sVfocused
p527
I00
sVscratchpad_state
p528
Vnone
p529
sVrect
p530
(dp531
g101
I30
sg102
I0
sVheight
p532
I1050
sVwidth
p533
I960
ssVwindow_rect
p534
(dp535
g101
I0
sg102
I0
sVheight
p536
I0
sVwidth
p537
I0
ssVname
p538
NsVgeometry
p539
(dp540
g101
I0
sg102
I0
sVheight
p541
I0
sVwidth
p542
I0
ssVfloating_nodes
p543
(lp544
sa(dp545
Vfullscreen_mode
p546
I0
sVorientation
p547
Vvertical
p548
sVfocus
p549
(lp550
I38432752
aI38436112
asVsticky
p551
I00
sVurgent
p552
I00
sVlast_split_layout
p553
Vsplitv
p554
sVfloating
p555
Vauto_off
p556
sVborder
p557
Vpixel
p558
sVid
p559
I38432288
sVcurrent_border_width
p560
I-1
sVlayout
p561
Vsplitv
p562
sVpercent
p563
F0.5
sVworkspace_layout
p564
Vdefault
p565
sVwindow
p566
NsVnodes
p567
(lp568
(dp569
Vwindow_properties
p570
(dp571
Vinstance
p572
Vurxvt
p573
sVtransient_for
p574
NsVclass
p575
VURxvt
p576
sVtitle
p577
Vstation: ~
p578
ssVfullscreen_mode
p579
I0
sVorientation
p580
Vnone
p581
sg245
S'urxvt'
p582
sVfocus
p583
(lp584
sVsticky
p585
I00
sVurgent
p586
I00
sVlast_split_layout
p587
Vsplith
p588
sVfloating
p589
Vauto_off
p590
sVborder
p591
Vpixel
p592
sVid
p593
I38432752
sVcurrent_border_width
p594
I4
sVlayout
p595
Vsplith
p596
sVpercent
p597
F0.5
sVworkspace_layout
p598
Vdefault
p599
sVwindow
p600
I4194335
sVnodes
p601
(lp602
sVtype
p603
Vcon
p604
sVdeco_rect
p605
(dp606
g101
I0
sg102
I0
sVheight
p607
I0
sVwidth
p608
I0
ssVswallows
p609
(lp610
sVfocused
p611
I00
sVscratchpad_state
p612
Vnone
p613
sVrect
p614
(dp615
g101
I42
sg102
I966
sVheight
p616
I507
sVwidth
p617
I942
ssVwindow_rect
p618
(dp619
g101
I4
sg102
I4
sVheight
p620
I499
sVwidth
p621
I934
ssVname
p622
Vstation: ~
p623
sVgeometry
p624
(dp625
g101
I0
sg102
I0
sVheight
p626
I360
sVwidth
p627
I560
ssVfloating_nodes
p628
(lp629
sa(dp630
Vwindow_properties
p631
(dp632
Vinstance
p633
Vurxvt
p634
sVtransient_for
p635
NsVclass
p636
VURxvt
p637
sVtitle
p638
Vstation: ~
p639
ssVfullscreen_mode
p640
I0
sVorientation
p641
Vnone
p642
sg245
S'urxvt'
p643
sVfocus
p644
(lp645
sVsticky
p646
I00
sVurgent
p647
I00
sVlast_split_layout
p648
Vsplith
p649
sVfloating
p650
Vauto_off
p651
sVborder
p652
Vpixel
p653
sVid
p654
I38436112
sVcurrent_border_width
p655
I4
sVlayout
p656
Vsplith
p657
sVpercent
p658
F0.5
sVworkspace_layout
p659
Vdefault
p660
sVwindow
p661
I4194346
sVnodes
p662
(lp663
sVtype
p664
Vcon
p665
sVdeco_rect
p666
(dp667
g101
I0
sg102
I0
sVheight
p668
I0
sVwidth
p669
I0
ssVswallows
p670
(lp671
sVfocused
p672
I00
sVscratchpad_state
p673
Vnone
p674
sVrect
p675
(dp676
g101
I561
sg102
I966
sVheight
p677
I507
sVwidth
p678
I942
ssVwindow_rect
p679
(dp680
g101
I4
sg102
I4
sVheight
p681
I499
sVwidth
p682
I934
ssVname
p683
Vstation: ~
p684
sVgeometry
p685
(dp686
g101
I0
sg102
I0
sVheight
p687
I360
sVwidth
p688
I560
ssVfloating_nodes
p689
(lp690
sasVtype
p691
Vcon
p692
sVdeco_rect
p693
(dp694
g101
I0
sg102
I0
sVheight
p695
I0
sVwidth
p696
I0
ssVswallows
p697
(lp698
sVfocused
p699
I00
sVscratchpad_state
p700
Vnone
p701
sVrect
p702
(dp703
g101
I30
sg102
I960
sVheight
p704
I1050
sVwidth
p705
I960
ssVwindow_rect
p706
(dp707
g101
I0
sg102
I0
sVheight
p708
I0
sVwidth
p709
I0
ssVname
p710
NsVgeometry
p711
(dp712
g101
I0
sg102
I0
sVheight
p713
I0
sVwidth
p714
I0
ssVfloating_nodes
p715
(lp716
sasVtype
p717
Vworkspace
p718
sVdeco_rect
p719
(dp720
g101
I0
sg102
I0
sVheight
p721
I0
sVwidth
p722
I0
ssVswallows
p723
(lp724
sVfocused
p725
I00
sVscratchpad_state
p726
Vnone
p727
sVrect
p728
(dp729
g101
I30
sg102
I0
sVheight
p730
I1050
sVwidth
p731
I1920
ssVwindow_rect
p732
(dp733
g101
I0
sg102
I0
sVheight
p734
I0
sVwidth
p735
I0
ssVname
p736
Vterm:\uf120
p737
sVgeometry
p738
(dp739
g101
I0
sg102
I0
sVheight
p740
I0
sVwidth
p741
I0
ssVgaps
p742
(dp743
Vouter
p744
I0
sVinner
p745
I0
ssVfloating_nodes
p746
(lp747
sa(dp748
Vfullscreen_mode
p749
I0
sVorientation
p750
Vhorizontal
p751
sVfocus
p752
(lp753
I38762176
asVsticky
p754
I00
sVurgent
p755
I00
sVnum
p756
I-1
sVlast_split_layout
p757
Vsplith
p758
sVfloating
p759
Vauto_off
p760
sVborder
p761
Vpixel
p762
sVid
p763
I38693360
sVcurrent_border_width
p764
I-1
sVlayout
p765
Vsplith
p766
sVpercent
p767
F0.5
sVworkspace_layout
p768
Vdefault
p769
sVwindow
p770
NsVnodes
p771
(lp772
(dp773
Vfullscreen_mode
p774
I0
sVorientation
p775
Vvertical
p776
sVfocus
p777
(lp778
I38330064
asVsticky
p779
I00
sVurgent
p780
I00
sVlast_split_layout
p781
Vsplitv
p782
sVfloating
p783
Vauto_off
p784
sVborder
p785
Vpixel
p786
sVid
p787
I38762176
sVcurrent_border_width
p788
I-1
sVlayout
p789
Vsplitv
p790
sVpercent
p791
NsVworkspace_layout
p792
Vdefault
p793
sVwindow
p794
NsVnodes
p795
(lp796
(dp797
Vfullscreen_mode
p798
I0
sVorientation
p799
Vvertical
p800
sVfocus
p801
(lp802
I38324608
asVsticky
p803
I00
sVurgent
p804
I00
sVlast_split_layout
p805
Vsplitv
p806
sVfloating
p807
Vauto_off
p808
sVborder
p809
Vpixel
p810
sVid
p811
I38330064
sVcurrent_border_width
p812
I-1
sVlayout
p813
Vsplitv
p814
sVpercent
p815
F1.0
sVworkspace_layout
p816
Vdefault
p817
sVwindow
p818
NsVnodes
p819
(lp820
(dp821
Vfullscreen_mode
p822
I0
sVorientation
p823
Vvertical
p824
sVfocus
p825
(lp826
I38799088
asVsticky
p827
I00
sVurgent
p828
I00
sVlast_split_layout
p829
Vsplitv
p830
sVfloating
p831
Vauto_off
p832
sVborder
p833
Vpixel
p834
sVid
p835
I38324608
sVcurrent_border_width
p836
I-1
sVlayout
p837
Vsplitv
p838
sVpercent
p839
F1.0
sVworkspace_layout
p840
Vdefault
p841
sVwindow
p842
NsVnodes
p843
(lp844
(dp845
Vfullscreen_mode
p846
I0
sVorientation
p847
Vhorizontal
p848
sVfocus
p849
(lp850
I38773856
asVsticky
p851
I00
sVurgent
p852
I00
sVlast_split_layout
p853
Vsplith
p854
sVfloating
p855
Vauto_off
p856
sVborder
p857
Vpixel
p858
sVid
p859
I38799088
sVcurrent_border_width
p860
I-1
sVlayout
p861
Vsplith
p862
sVpercent
p863
F1.0
sVworkspace_layout
p864
Vdefault
p865
sVwindow
p866
NsVnodes
p867
(lp868
(dp869
Vwindow_properties
p870
(dp871
Vinstance
p872
Vchromium
p873
sVtransient_for
p874
NsVwindow_role
p875
Vbrowser
p876
sVclass
p877
VChromium
p878
sVtitle
p879
VGitHub - olemartinorg/i3-alternating-layout: Scripts to open new windows in i3wm using alternating layouts (splith/splitv) for each new window - Chromium
p880
ssVfullscreen_mode
p881
I0
sVorientation
p882
Vnone
p883
sg245
S'chromium'
p884
sVfocus
p885
(lp886
sVsticky
p887
I00
sVurgent
p888
I00
sVlast_split_layout
p889
Vsplith
p890
sVfloating
p891
Vauto_off
p892
sVborder
p893
Vpixel
p894
sVid
p895
I38773856
sVcurrent_border_width
p896
I4
sVlayout
p897
Vsplith
p898
sVpercent
p899
NsVworkspace_layout
p900
Vdefault
p901
sVwindow
p902
I31457282
sVnodes
p903
(lp904
sVtype
p905
Vcon
p906
sVdeco_rect
p907
(dp908
g101
I0
sg102
I0
sVheight
p909
I0
sVwidth
p910
I0
ssVswallows
p911
(lp912
sVfocused
p913
I00
sVscratchpad_state
p914
Vnone
p915
sVrect
p916
(dp917
g101
I30
sg102
I0
sVheight
p918
I1050
sVwidth
p919
I1920
ssVwindow_rect
p920
(dp921
g101
I0
sg102
I0
sVheight
p922
I1050
sVwidth
p923
I1920
ssVname
p924
VGitHub - olemartinorg/i3-alternating-layout: Scripts to open new windows in i3wm using alternating layouts (splith/splitv) for each new window - Chromium
p925
sVgeometry
p926
(dp927
g101
I46
sg102
I16
sVheight
p928
I1018
sVwidth
p929
I934
ssVfloating_nodes
p930
(lp931
sasVtype
p932
Vcon
p933
sVdeco_rect
p934
(dp935
g101
I0
sg102
I0
sVheight
p936
I0
sVwidth
p937
I0
ssVswallows
p938
(lp939
sVfocused
p940
I00
sVscratchpad_state
p941
Vnone
p942
sVrect
p943
(dp944
g101
I30
sg102
I0
sVheight
p945
I1050
sVwidth
p946
I1920
ssVwindow_rect
p947
(dp948
g101
I0
sg102
I0
sVheight
p949
I0
sVwidth
p950
I0
ssVname
p951
NsVgeometry
p952
(dp953
g101
I0
sg102
I0
sVheight
p954
I0
sVwidth
p955
I0
ssVfloating_nodes
p956
(lp957
sasVtype
p958
Vcon
p959
sVdeco_rect
p960
(dp961
g101
I0
sg102
I0
sVheight
p962
I0
sVwidth
p963
I0
ssVswallows
p964
(lp965
sVfocused
p966
I00
sVscratchpad_state
p967
Vnone
p968
sVrect
p969
(dp970
g101
I30
sg102
I0
sVheight
p971
I1050
sVwidth
p972
I1920
ssVwindow_rect
p973
(dp974
g101
I0
sg102
I0
sVheight
p975
I0
sVwidth
p976
I0
ssVname
p977
NsVgeometry
p978
(dp979
g101
I0
sg102
I0
sVheight
p980
I0
sVwidth
p981
I0
ssVfloating_nodes
p982
(lp983
sasVtype
p984
Vcon
p985
sVdeco_rect
p986
(dp987
g101
I0
sg102
I0
sVheight
p988
I0
sVwidth
p989
I0
ssVswallows
p990
(lp991
sVfocused
p992
I00
sVscratchpad_state
p993
Vnone
p994
sVrect
p995
(dp996
g101
I30
sg102
I0
sVheight
p997
I1050
sVwidth
p998
I1920
ssVwindow_rect
p999
(dp1000
g101
I0
sg102
I0
sVheight
p1001
I0
sVwidth
p1002
I0
ssVname
p1003
NsVgeometry
p1004
(dp1005
g101
I0
sg102
I0
sVheight
p1006
I0
sVwidth
p1007
I0
ssVfloating_nodes
p1008
(lp1009
sasVtype
p1010
Vcon
p1011
sVdeco_rect
p1012
(dp1013
g101
I0
sg102
I0
sVheight
p1014
I0
sVwidth
p1015
I0
ssVswallows
p1016
(lp1017
sVfocused
p1018
I00
sVscratchpad_state
p1019
Vnone
p1020
sVrect
p1021
(dp1022
g101
I30
sg102
I0
sVheight
p1023
I1050
sVwidth
p1024
I1920
ssVwindow_rect
p1025
(dp1026
g101
I0
sg102
I0
sVheight
p1027
I0
sVwidth
p1028
I0
ssVname
p1029
NsVgeometry
p1030
(dp1031
g101
I0
sg102
I0
sVheight
p1032
I0
sVwidth
p1033
I0
ssVfloating_nodes
p1034
(lp1035
sasVtype
p1036
Vworkspace
p1037
sVdeco_rect
p1038
(dp1039
g101
I0
sg102
I0
sVheight
p1040
I0
sVwidth
p1041
I0
ssVswallows
p1042
(lp1043
sVfocused
p1044
I00
sVscratchpad_state
p1045
Vnone
p1046
sVrect
p1047
(dp1048
g101
I30
sg102
I0
sVheight
p1049
I1050
sVwidth
p1050
I1920
ssVwindow_rect
p1051
(dp1052
g101
I0
sg102
I0
sVheight
p1053
I0
sVwidth
p1054
I0
ssVname
p1055
Vweb:\uf0ac
p1056
sVgeometry
p1057
(dp1058
g101
I0
sg102
I0
sVheight
p1059
I0
sVwidth
p1060
I0
ssVgaps
p1061
(dp1062
Vouter
p1063
I0
sVinner
p1064
I0
ssVfloating_nodes
p1065
(lp1066
sasVtype
p1067
Vcon
p1068
sVdeco_rect
p1069
(dp1070
g101
I0
sg102
I0
sVheight
p1071
I0
sVwidth
p1072
I0
ssVswallows
p1073
(lp1074
sVfocused
p1075
I00
sVscratchpad_state
p1076
Vnone
p1077
sVrect
p1078
(dp1079
g101
I30
sg102
I0
sVheight
p1080
I1050
sVwidth
p1081
I1920
ssVwindow_rect
p1082
(dp1083
g101
I0
sg102
I0
sVheight
p1084
I0
sVwidth
p1085
I0
ssVname
p1086
Vcontent
p1087
sVgeometry
p1088
(dp1089
g101
I0
sg102
I0
sVheight
p1090
I0
sVwidth
p1091
I0
ssVfloating_nodes
p1092
(lp1093
sa(dp1094
Vfullscreen_mode
p1095
I0
sVorientation
p1096
Vnone
p1097
sVfocus
p1098
(lp1099
sVsticky
p1100
I00
sVurgent
p1101
I00
sVlast_split_layout
p1102
Vsplith
p1103
sVfloating
p1104
Vauto_off
p1105
sVborder
p1106
Vpixel
p1107
sVid
p1108
I38385952
sVcurrent_border_width
p1109
I-1
sVlayout
p1110
Vdockarea
p1111
sVpercent
p1112
NsVworkspace_layout
p1113
Vdefault
p1114
sVwindow
p1115
NsVnodes
p1116
(lp1117
sVtype
p1118
Vdockarea
p1119
sVdeco_rect
p1120
(dp1121
g101
I0
sg102
I0
sVheight
p1122
I0
sVwidth
p1123
I0
ssVswallows
p1124
(lp1125
(dp1126
Vdock
p1127
I3
sVinsert_where
p1128
I2
sasVfocused
p1129
I00
sVscratchpad_state
p1130
Vnone
p1131
sVrect
p1132
(dp1133
g101
I1080
sg102
I0
sVheight
p1134
I0
sVwidth
p1135
I1920
ssVwindow_rect
p1136
(dp1137
g101
I0
sg102
I0
sVheight
p1138
I0
sVwidth
p1139
I0
ssVname
p1140
Vbottomdock
p1141
sVgeometry
p1142
(dp1143
g101
I0
sg102
I0
sVheight
p1144
I0
sVwidth
p1145
I0
ssVfloating_nodes
p1146
(lp1147
sasVtype
p1148
Voutput
p1149
sVdeco_rect
p1150
(dp1151
g101
I0
sg102
I0
sVheight
p1152
I0
sVwidth
p1153
I0
ssVswallows
p1154
(lp1155
sVfocused
p1156
I00
sVscratchpad_state
p1157
Vnone
p1158
sVrect
p1159
(dp1160
g101
I0
sg102
I0
sVheight
p1161
I1080
sVwidth
p1162
I1920
ssVwindow_rect
p1163
(dp1164
g101
I0
sg102
I0
sVheight
p1165
I0
sVwidth
p1166
I0
ssVname
p1167
VDFP1
p1168
sVgeometry
p1169
(dp1170
g101
I0
sg102
I0
sVheight
p1171
I0
sVwidth
p1172
I0
ssVfloating_nodes
p1173
(lp1174
sasVtype
p1175
Vroot
p1176
sVdeco_rect
p1177
(dp1178
g101
I0
sg102
I0
sVheight
p1179
I0
sVwidth
p1180
I0
ssVswallows
p1181
(lp1182
sVfocused
p1183
I00
sVscratchpad_state
p1184
Vnone
p1185
sVrect
p1186
(dp1187
g101
I0
sg102
I0
sVheight
p1188
I1080
sVwidth
p1189
I1920
ssVwindow_rect
p1190
(dp1191
g101
I0
sg102
I0
sVheight
p1192
I0
sVwidth
p1193
I0
ssVname
p1194
Vroot
p1195
sVgeometry
p1196
(dp1197
g101
I0
sg102
I0
sVheight
p1198
I0
sVwidth
p1199
I0
ssVfloating_nodes
p1200
(lp1201
s.